
;CodeVisionAVR C Compiler V2.04.4a Advanced
;(C) Copyright 1998-2009 Pavel Haiduc, HP InfoTech s.r.l.
;http://www.hpinfotech.com

;Chip type                : ATmega1284P
;Program type             : Application
;Clock frequency          : 8.000000 MHz
;Memory model             : Small
;Optimize for             : Size
;(s)printf features       : int, width
;(s)scanf features        : int, width
;External RAM size        : 0
;Data Stack size          : 4096 byte(s)
;Heap size                : 0 byte(s)
;Promote 'char' to 'int'  : Yes
;'char' is unsigned       : Yes
;8 bit enums              : Yes
;global 'const' stored in FLASH: No
;Enhanced core instructions    : On
;Smart register allocation     : On
;Automatic register allocation : On

	#pragma AVRPART ADMIN PART_NAME ATmega1284P
	#pragma AVRPART MEMORY PROG_FLASH 131072
	#pragma AVRPART MEMORY EEPROM 4096
	#pragma AVRPART MEMORY INT_SRAM SIZE 16384
	#pragma AVRPART MEMORY INT_SRAM START_ADDR 0x100

	.LISTMAC
	.EQU EERE=0x0
	.EQU EEWE=0x1
	.EQU EEMWE=0x2
	.EQU UDRE=0x5
	.EQU RXC=0x7
	.EQU EECR=0x1F
	.EQU EEDR=0x20
	.EQU EEARL=0x21
	.EQU EEARH=0x22
	.EQU SPSR0=0x2D
	.EQU SPDR0=0x2E
	.EQU SMCR=0x33
	.EQU MCUSR=0x34
	.EQU MCUCR=0x35
	.EQU WDTCSR=0x60
	.EQU UCSR0A=0xC0
	.EQU UDR0=0xC6
	.EQU RAMPZ=0x3B
	.EQU SPL=0x3D
	.EQU SPH=0x3E
	.EQU SREG=0x3F
	.EQU GPIOR0=0x1E

	.DEF R0X0=R0
	.DEF R0X1=R1
	.DEF R0X2=R2
	.DEF R0X3=R3
	.DEF R0X4=R4
	.DEF R0X5=R5
	.DEF R0X6=R6
	.DEF R0X7=R7
	.DEF R0X8=R8
	.DEF R0X9=R9
	.DEF R0XA=R10
	.DEF R0XB=R11
	.DEF R0XC=R12
	.DEF R0XD=R13
	.DEF R0XE=R14
	.DEF R0XF=R15
	.DEF R0X10=R16
	.DEF R0X11=R17
	.DEF R0X12=R18
	.DEF R0X13=R19
	.DEF R0X14=R20
	.DEF R0X15=R21
	.DEF R0X16=R22
	.DEF R0X17=R23
	.DEF R0X18=R24
	.DEF R0X19=R25
	.DEF R0X1A=R26
	.DEF R0X1B=R27
	.DEF R0X1C=R28
	.DEF R0X1D=R29
	.DEF R0X1E=R30
	.DEF R0X1F=R31

	.MACRO __CPD1N
	CPI  R30,LOW(@0)
	LDI  R26,HIGH(@0)
	CPC  R31,R26
	LDI  R26,BYTE3(@0)
	CPC  R22,R26
	LDI  R26,BYTE4(@0)
	CPC  R23,R26
	.ENDM

	.MACRO __CPD2N
	CPI  R26,LOW(@0)
	LDI  R30,HIGH(@0)
	CPC  R27,R30
	LDI  R30,BYTE3(@0)
	CPC  R24,R30
	LDI  R30,BYTE4(@0)
	CPC  R25,R30
	.ENDM

	.MACRO __CPWRR
	CP   R@0,R@2
	CPC  R@1,R@3
	.ENDM

	.MACRO __CPWRN
	CPI  R@0,LOW(@2)
	LDI  R30,HIGH(@2)
	CPC  R@1,R30
	.ENDM

	.MACRO __ADDB1MN
	SUBI R30,LOW(-@0-(@1))
	.ENDM

	.MACRO __ADDB2MN
	SUBI R26,LOW(-@0-(@1))
	.ENDM

	.MACRO __ADDW1MN
	SUBI R30,LOW(-@0-(@1))
	SBCI R31,HIGH(-@0-(@1))
	.ENDM

	.MACRO __ADDW2MN
	SUBI R26,LOW(-@0-(@1))
	SBCI R27,HIGH(-@0-(@1))
	.ENDM

	.MACRO __ADDW1FN
	SUBI R30,LOW(-2*@0-(@1))
	SBCI R31,HIGH(-2*@0-(@1))
	.ENDM

	.MACRO __ADDD1FN
	SUBI R30,LOW(-2*@0-(@1))
	SBCI R31,HIGH(-2*@0-(@1))
	SBCI R22,BYTE3(-2*@0-(@1))
	.ENDM

	.MACRO __ADDD1N
	SUBI R30,LOW(-@0)
	SBCI R31,HIGH(-@0)
	SBCI R22,BYTE3(-@0)
	SBCI R23,BYTE4(-@0)
	.ENDM

	.MACRO __ADDD2N
	SUBI R26,LOW(-@0)
	SBCI R27,HIGH(-@0)
	SBCI R24,BYTE3(-@0)
	SBCI R25,BYTE4(-@0)
	.ENDM

	.MACRO __SUBD1N
	SUBI R30,LOW(@0)
	SBCI R31,HIGH(@0)
	SBCI R22,BYTE3(@0)
	SBCI R23,BYTE4(@0)
	.ENDM

	.MACRO __SUBD2N
	SUBI R26,LOW(@0)
	SBCI R27,HIGH(@0)
	SBCI R24,BYTE3(@0)
	SBCI R25,BYTE4(@0)
	.ENDM

	.MACRO __ANDBMNN
	LDS  R30,@0+(@1)
	ANDI R30,LOW(@2)
	STS  @0+(@1),R30
	.ENDM

	.MACRO __ANDWMNN
	LDS  R30,@0+(@1)
	ANDI R30,LOW(@2)
	STS  @0+(@1),R30
	LDS  R30,@0+(@1)+1
	ANDI R30,HIGH(@2)
	STS  @0+(@1)+1,R30
	.ENDM

	.MACRO __ANDD1N
	ANDI R30,LOW(@0)
	ANDI R31,HIGH(@0)
	ANDI R22,BYTE3(@0)
	ANDI R23,BYTE4(@0)
	.ENDM

	.MACRO __ANDD2N
	ANDI R26,LOW(@0)
	ANDI R27,HIGH(@0)
	ANDI R24,BYTE3(@0)
	ANDI R25,BYTE4(@0)
	.ENDM

	.MACRO __ORBMNN
	LDS  R30,@0+(@1)
	ORI  R30,LOW(@2)
	STS  @0+(@1),R30
	.ENDM

	.MACRO __ORWMNN
	LDS  R30,@0+(@1)
	ORI  R30,LOW(@2)
	STS  @0+(@1),R30
	LDS  R30,@0+(@1)+1
	ORI  R30,HIGH(@2)
	STS  @0+(@1)+1,R30
	.ENDM

	.MACRO __ORD1N
	ORI  R30,LOW(@0)
	ORI  R31,HIGH(@0)
	ORI  R22,BYTE3(@0)
	ORI  R23,BYTE4(@0)
	.ENDM

	.MACRO __ORD2N
	ORI  R26,LOW(@0)
	ORI  R27,HIGH(@0)
	ORI  R24,BYTE3(@0)
	ORI  R25,BYTE4(@0)
	.ENDM

	.MACRO __DELAY_USB
	LDI  R24,LOW(@0)
__DELAY_USB_LOOP:
	DEC  R24
	BRNE __DELAY_USB_LOOP
	.ENDM

	.MACRO __DELAY_USW
	LDI  R24,LOW(@0)
	LDI  R25,HIGH(@0)
__DELAY_USW_LOOP:
	SBIW R24,1
	BRNE __DELAY_USW_LOOP
	.ENDM

	.MACRO __GETD1S
	LDD  R30,Y+@0
	LDD  R31,Y+@0+1
	LDD  R22,Y+@0+2
	LDD  R23,Y+@0+3
	.ENDM

	.MACRO __GETD2S
	LDD  R26,Y+@0
	LDD  R27,Y+@0+1
	LDD  R24,Y+@0+2
	LDD  R25,Y+@0+3
	.ENDM

	.MACRO __PUTD1S
	STD  Y+@0,R30
	STD  Y+@0+1,R31
	STD  Y+@0+2,R22
	STD  Y+@0+3,R23
	.ENDM

	.MACRO __PUTD2S
	STD  Y+@0,R26
	STD  Y+@0+1,R27
	STD  Y+@0+2,R24
	STD  Y+@0+3,R25
	.ENDM

	.MACRO __PUTDZ2
	STD  Z+@0,R26
	STD  Z+@0+1,R27
	STD  Z+@0+2,R24
	STD  Z+@0+3,R25
	.ENDM

	.MACRO __CLRD1S
	STD  Y+@0,R30
	STD  Y+@0+1,R30
	STD  Y+@0+2,R30
	STD  Y+@0+3,R30
	.ENDM

	.MACRO __POINTB1MN
	LDI  R30,LOW(@0+(@1))
	.ENDM

	.MACRO __POINTW1MN
	LDI  R30,LOW(@0+(@1))
	LDI  R31,HIGH(@0+(@1))
	.ENDM

	.MACRO __POINTD1M
	LDI  R30,LOW(@0)
	LDI  R31,HIGH(@0)
	LDI  R22,BYTE3(@0)
	LDI  R23,BYTE4(@0)
	.ENDM

	.MACRO __POINTW1FN
	LDI  R30,LOW(2*@0+(@1))
	LDI  R31,HIGH(2*@0+(@1))
	.ENDM

	.MACRO __POINTD1FN
	LDI  R30,LOW(2*@0+(@1))
	LDI  R31,HIGH(2*@0+(@1))
	LDI  R22,BYTE3(2*@0+(@1))
	LDI  R23,BYTE4(2*@0+(@1))
	.ENDM

	.MACRO __POINTB2MN
	LDI  R26,LOW(@0+(@1))
	.ENDM

	.MACRO __POINTW2MN
	LDI  R26,LOW(@0+(@1))
	LDI  R27,HIGH(@0+(@1))
	.ENDM

	.MACRO __POINTBRM
	LDI  R@0,LOW(@1)
	.ENDM

	.MACRO __POINTWRM
	LDI  R@0,LOW(@2)
	LDI  R@1,HIGH(@2)
	.ENDM

	.MACRO __POINTBRMN
	LDI  R@0,LOW(@1+(@2))
	.ENDM

	.MACRO __POINTWRMN
	LDI  R@0,LOW(@2+(@3))
	LDI  R@1,HIGH(@2+(@3))
	.ENDM

	.MACRO __POINTWRFN
	LDI  R@0,LOW(@2*2+(@3))
	LDI  R@1,HIGH(@2*2+(@3))
	.ENDM

	.MACRO __GETD1N
	LDI  R30,LOW(@0)
	LDI  R31,HIGH(@0)
	LDI  R22,BYTE3(@0)
	LDI  R23,BYTE4(@0)
	.ENDM

	.MACRO __GETD2N
	LDI  R26,LOW(@0)
	LDI  R27,HIGH(@0)
	LDI  R24,BYTE3(@0)
	LDI  R25,BYTE4(@0)
	.ENDM

	.MACRO __GETB1MN
	LDS  R30,@0+(@1)
	.ENDM

	.MACRO __GETB1HMN
	LDS  R31,@0+(@1)
	.ENDM

	.MACRO __GETW1MN
	LDS  R30,@0+(@1)
	LDS  R31,@0+(@1)+1
	.ENDM

	.MACRO __GETD1MN
	LDS  R30,@0+(@1)
	LDS  R31,@0+(@1)+1
	LDS  R22,@0+(@1)+2
	LDS  R23,@0+(@1)+3
	.ENDM

	.MACRO __GETBRMN
	LDS  R@0,@1+(@2)
	.ENDM

	.MACRO __GETWRMN
	LDS  R@0,@2+(@3)
	LDS  R@1,@2+(@3)+1
	.ENDM

	.MACRO __GETWRZ
	LDD  R@0,Z+@2
	LDD  R@1,Z+@2+1
	.ENDM

	.MACRO __GETD2Z
	LDD  R26,Z+@0
	LDD  R27,Z+@0+1
	LDD  R24,Z+@0+2
	LDD  R25,Z+@0+3
	.ENDM

	.MACRO __GETB2MN
	LDS  R26,@0+(@1)
	.ENDM

	.MACRO __GETW2MN
	LDS  R26,@0+(@1)
	LDS  R27,@0+(@1)+1
	.ENDM

	.MACRO __GETD2MN
	LDS  R26,@0+(@1)
	LDS  R27,@0+(@1)+1
	LDS  R24,@0+(@1)+2
	LDS  R25,@0+(@1)+3
	.ENDM

	.MACRO __PUTB1MN
	STS  @0+(@1),R30
	.ENDM

	.MACRO __PUTW1MN
	STS  @0+(@1),R30
	STS  @0+(@1)+1,R31
	.ENDM

	.MACRO __PUTD1MN
	STS  @0+(@1),R30
	STS  @0+(@1)+1,R31
	STS  @0+(@1)+2,R22
	STS  @0+(@1)+3,R23
	.ENDM

	.MACRO __PUTB1EN
	LDI  R26,LOW(@0+(@1))
	LDI  R27,HIGH(@0+(@1))
	CALL __EEPROMWRB
	.ENDM

	.MACRO __PUTW1EN
	LDI  R26,LOW(@0+(@1))
	LDI  R27,HIGH(@0+(@1))
	CALL __EEPROMWRW
	.ENDM

	.MACRO __PUTD1EN
	LDI  R26,LOW(@0+(@1))
	LDI  R27,HIGH(@0+(@1))
	CALL __EEPROMWRD
	.ENDM

	.MACRO __PUTBR0MN
	STS  @0+(@1),R0
	.ENDM

	.MACRO __PUTBMRN
	STS  @0+(@1),R@2
	.ENDM

	.MACRO __PUTWMRN
	STS  @0+(@1),R@2
	STS  @0+(@1)+1,R@3
	.ENDM

	.MACRO __PUTBZR
	STD  Z+@1,R@0
	.ENDM

	.MACRO __PUTWZR
	STD  Z+@2,R@0
	STD  Z+@2+1,R@1
	.ENDM

	.MACRO __GETW1R
	MOV  R30,R@0
	MOV  R31,R@1
	.ENDM

	.MACRO __GETW2R
	MOV  R26,R@0
	MOV  R27,R@1
	.ENDM

	.MACRO __GETWRN
	LDI  R@0,LOW(@2)
	LDI  R@1,HIGH(@2)
	.ENDM

	.MACRO __PUTW1R
	MOV  R@0,R30
	MOV  R@1,R31
	.ENDM

	.MACRO __PUTW2R
	MOV  R@0,R26
	MOV  R@1,R27
	.ENDM

	.MACRO __ADDWRN
	SUBI R@0,LOW(-@2)
	SBCI R@1,HIGH(-@2)
	.ENDM

	.MACRO __ADDWRR
	ADD  R@0,R@2
	ADC  R@1,R@3
	.ENDM

	.MACRO __SUBWRN
	SUBI R@0,LOW(@2)
	SBCI R@1,HIGH(@2)
	.ENDM

	.MACRO __SUBWRR
	SUB  R@0,R@2
	SBC  R@1,R@3
	.ENDM

	.MACRO __ANDWRN
	ANDI R@0,LOW(@2)
	ANDI R@1,HIGH(@2)
	.ENDM

	.MACRO __ANDWRR
	AND  R@0,R@2
	AND  R@1,R@3
	.ENDM

	.MACRO __ORWRN
	ORI  R@0,LOW(@2)
	ORI  R@1,HIGH(@2)
	.ENDM

	.MACRO __ORWRR
	OR   R@0,R@2
	OR   R@1,R@3
	.ENDM

	.MACRO __EORWRR
	EOR  R@0,R@2
	EOR  R@1,R@3
	.ENDM

	.MACRO __GETWRS
	LDD  R@0,Y+@2
	LDD  R@1,Y+@2+1
	.ENDM

	.MACRO __PUTBSR
	STD  Y+@1,R@0
	.ENDM

	.MACRO __PUTWSR
	STD  Y+@2,R@0
	STD  Y+@2+1,R@1
	.ENDM

	.MACRO __MOVEWRR
	MOV  R@0,R@2
	MOV  R@1,R@3
	.ENDM

	.MACRO __INWR
	IN   R@0,@2
	IN   R@1,@2+1
	.ENDM

	.MACRO __OUTWR
	OUT  @2+1,R@1
	OUT  @2,R@0
	.ENDM

	.MACRO __CALL1MN
	LDS  R30,@0+(@1)
	LDS  R31,@0+(@1)+1
	ICALL
	.ENDM

	.MACRO __CALL1FN
	LDI  R30,LOW(2*@0+(@1))
	LDI  R31,HIGH(2*@0+(@1))
	CALL __GETW1PF
	ICALL
	.ENDM

	.MACRO __CALL2EN
	LDI  R26,LOW(@0+(@1))
	LDI  R27,HIGH(@0+(@1))
	CALL __EEPROMRDW
	ICALL
	.ENDM

	.MACRO __GETW1STACK
	IN   R26,SPL
	IN   R27,SPH
	ADIW R26,@0+1
	LD   R30,X+
	LD   R31,X
	.ENDM

	.MACRO __GETD1STACK
	IN   R26,SPL
	IN   R27,SPH
	ADIW R26,@0+1
	LD   R30,X+
	LD   R31,X+
	LD   R22,X
	.ENDM

	.MACRO __NBST
	BST  R@0,@1
	IN   R30,SREG
	LDI  R31,0x40
	EOR  R30,R31
	OUT  SREG,R30
	.ENDM


	.MACRO __PUTB1SN
	LDD  R26,Y+@0
	LDD  R27,Y+@0+1
	SUBI R26,LOW(-@1)
	SBCI R27,HIGH(-@1)
	ST   X,R30
	.ENDM

	.MACRO __PUTW1SN
	LDD  R26,Y+@0
	LDD  R27,Y+@0+1
	SUBI R26,LOW(-@1)
	SBCI R27,HIGH(-@1)
	ST   X+,R30
	ST   X,R31
	.ENDM

	.MACRO __PUTD1SN
	LDD  R26,Y+@0
	LDD  R27,Y+@0+1
	SUBI R26,LOW(-@1)
	SBCI R27,HIGH(-@1)
	CALL __PUTDP1
	.ENDM

	.MACRO __PUTB1SNS
	LDD  R26,Y+@0
	LDD  R27,Y+@0+1
	ADIW R26,@1
	ST   X,R30
	.ENDM

	.MACRO __PUTW1SNS
	LDD  R26,Y+@0
	LDD  R27,Y+@0+1
	ADIW R26,@1
	ST   X+,R30
	ST   X,R31
	.ENDM

	.MACRO __PUTD1SNS
	LDD  R26,Y+@0
	LDD  R27,Y+@0+1
	ADIW R26,@1
	CALL __PUTDP1
	.ENDM

	.MACRO __PUTB1PMN
	LDS  R26,@0
	LDS  R27,@0+1
	SUBI R26,LOW(-@1)
	SBCI R27,HIGH(-@1)
	ST   X,R30
	.ENDM

	.MACRO __PUTW1PMN
	LDS  R26,@0
	LDS  R27,@0+1
	SUBI R26,LOW(-@1)
	SBCI R27,HIGH(-@1)
	ST   X+,R30
	ST   X,R31
	.ENDM

	.MACRO __PUTD1PMN
	LDS  R26,@0
	LDS  R27,@0+1
	SUBI R26,LOW(-@1)
	SBCI R27,HIGH(-@1)
	CALL __PUTDP1
	.ENDM

	.MACRO __PUTB1PMNS
	LDS  R26,@0
	LDS  R27,@0+1
	ADIW R26,@1
	ST   X,R30
	.ENDM

	.MACRO __PUTW1PMNS
	LDS  R26,@0
	LDS  R27,@0+1
	ADIW R26,@1
	ST   X+,R30
	ST   X,R31
	.ENDM

	.MACRO __PUTD1PMNS
	LDS  R26,@0
	LDS  R27,@0+1
	ADIW R26,@1
	CALL __PUTDP1
	.ENDM

	.MACRO __PUTB1RN
	MOVW R26,R@0
	SUBI R26,LOW(-@1)
	SBCI R27,HIGH(-@1)
	ST   X,R30
	.ENDM

	.MACRO __PUTW1RN
	MOVW R26,R@0
	SUBI R26,LOW(-@1)
	SBCI R27,HIGH(-@1)
	ST   X+,R30
	ST   X,R31
	.ENDM

	.MACRO __PUTD1RN
	MOVW R26,R@0
	SUBI R26,LOW(-@1)
	SBCI R27,HIGH(-@1)
	CALL __PUTDP1
	.ENDM

	.MACRO __PUTB1RNS
	MOVW R26,R@0
	ADIW R26,@1
	ST   X,R30
	.ENDM

	.MACRO __PUTW1RNS
	MOVW R26,R@0
	ADIW R26,@1
	ST   X+,R30
	ST   X,R31
	.ENDM

	.MACRO __PUTD1RNS
	MOVW R26,R@0
	ADIW R26,@1
	CALL __PUTDP1
	.ENDM

	.MACRO __PUTB1RON
	MOV  R26,R@0
	MOV  R27,R@1
	SUBI R26,LOW(-@2)
	SBCI R27,HIGH(-@2)
	ST   X,R30
	.ENDM

	.MACRO __PUTW1RON
	MOV  R26,R@0
	MOV  R27,R@1
	SUBI R26,LOW(-@2)
	SBCI R27,HIGH(-@2)
	ST   X+,R30
	ST   X,R31
	.ENDM

	.MACRO __PUTD1RON
	MOV  R26,R@0
	MOV  R27,R@1
	SUBI R26,LOW(-@2)
	SBCI R27,HIGH(-@2)
	CALL __PUTDP1
	.ENDM

	.MACRO __PUTB1RONS
	MOV  R26,R@0
	MOV  R27,R@1
	ADIW R26,@2
	ST   X,R30
	.ENDM

	.MACRO __PUTW1RONS
	MOV  R26,R@0
	MOV  R27,R@1
	ADIW R26,@2
	ST   X+,R30
	ST   X,R31
	.ENDM

	.MACRO __PUTD1RONS
	MOV  R26,R@0
	MOV  R27,R@1
	ADIW R26,@2
	CALL __PUTDP1
	.ENDM


	.MACRO __GETB1SX
	MOVW R30,R28
	SUBI R30,LOW(-@0)
	SBCI R31,HIGH(-@0)
	LD   R30,Z
	.ENDM

	.MACRO __GETB1HSX
	MOVW R30,R28
	SUBI R30,LOW(-@0)
	SBCI R31,HIGH(-@0)
	LD   R31,Z
	.ENDM

	.MACRO __GETW1SX
	MOVW R30,R28
	SUBI R30,LOW(-@0)
	SBCI R31,HIGH(-@0)
	LD   R0,Z+
	LD   R31,Z
	MOV  R30,R0
	.ENDM

	.MACRO __GETD1SX
	MOVW R30,R28
	SUBI R30,LOW(-@0)
	SBCI R31,HIGH(-@0)
	LD   R0,Z+
	LD   R1,Z+
	LD   R22,Z+
	LD   R23,Z
	MOVW R30,R0
	.ENDM

	.MACRO __GETB2SX
	MOVW R26,R28
	SUBI R26,LOW(-@0)
	SBCI R27,HIGH(-@0)
	LD   R26,X
	.ENDM

	.MACRO __GETW2SX
	MOVW R26,R28
	SUBI R26,LOW(-@0)
	SBCI R27,HIGH(-@0)
	LD   R0,X+
	LD   R27,X
	MOV  R26,R0
	.ENDM

	.MACRO __GETD2SX
	MOVW R26,R28
	SUBI R26,LOW(-@0)
	SBCI R27,HIGH(-@0)
	LD   R0,X+
	LD   R1,X+
	LD   R24,X+
	LD   R25,X
	MOVW R26,R0
	.ENDM

	.MACRO __GETBRSX
	MOVW R30,R28
	SUBI R30,LOW(-@1)
	SBCI R31,HIGH(-@1)
	LD   R@0,Z
	.ENDM

	.MACRO __GETWRSX
	MOVW R30,R28
	SUBI R30,LOW(-@2)
	SBCI R31,HIGH(-@2)
	LD   R@0,Z+
	LD   R@1,Z
	.ENDM

	.MACRO __GETBRSX2
	MOVW R26,R28
	SUBI R26,LOW(-@1)
	SBCI R27,HIGH(-@1)
	LD   R@0,X
	.ENDM

	.MACRO __GETWRSX2
	MOVW R26,R28
	SUBI R26,LOW(-@2)
	SBCI R27,HIGH(-@2)
	LD   R@0,X+
	LD   R@1,X
	.ENDM

	.MACRO __LSLW8SX
	MOVW R30,R28
	SUBI R30,LOW(-@0)
	SBCI R31,HIGH(-@0)
	LD   R31,Z
	CLR  R30
	.ENDM

	.MACRO __PUTB1SX
	MOVW R26,R28
	SUBI R26,LOW(-@0)
	SBCI R27,HIGH(-@0)
	ST   X,R30
	.ENDM

	.MACRO __PUTW1SX
	MOVW R26,R28
	SUBI R26,LOW(-@0)
	SBCI R27,HIGH(-@0)
	ST   X+,R30
	ST   X,R31
	.ENDM

	.MACRO __PUTD1SX
	MOVW R26,R28
	SUBI R26,LOW(-@0)
	SBCI R27,HIGH(-@0)
	ST   X+,R30
	ST   X+,R31
	ST   X+,R22
	ST   X,R23
	.ENDM

	.MACRO __CLRW1SX
	MOVW R26,R28
	SUBI R26,LOW(-@0)
	SBCI R27,HIGH(-@0)
	ST   X+,R30
	ST   X,R30
	.ENDM

	.MACRO __CLRD1SX
	MOVW R26,R28
	SUBI R26,LOW(-@0)
	SBCI R27,HIGH(-@0)
	ST   X+,R30
	ST   X+,R30
	ST   X+,R30
	ST   X,R30
	.ENDM

	.MACRO __PUTB2SX
	MOVW R30,R28
	SUBI R30,LOW(-@0)
	SBCI R31,HIGH(-@0)
	ST   Z,R26
	.ENDM

	.MACRO __PUTW2SX
	MOVW R30,R28
	SUBI R30,LOW(-@0)
	SBCI R31,HIGH(-@0)
	ST   Z+,R26
	ST   Z,R27
	.ENDM

	.MACRO __PUTD2SX
	MOVW R30,R28
	SUBI R30,LOW(-@0)
	SBCI R31,HIGH(-@0)
	ST   Z+,R26
	ST   Z+,R27
	ST   Z+,R24
	ST   Z,R25
	.ENDM

	.MACRO __PUTBSRX
	MOVW R30,R28
	SUBI R30,LOW(-@1)
	SBCI R31,HIGH(-@1)
	ST   Z,R@0
	.ENDM

	.MACRO __PUTWSRX
	MOVW R30,R28
	SUBI R30,LOW(-@2)
	SBCI R31,HIGH(-@2)
	ST   Z+,R@0
	ST   Z,R@1
	.ENDM

	.MACRO __PUTB1SNX
	MOVW R26,R28
	SUBI R26,LOW(-@0)
	SBCI R27,HIGH(-@0)
	LD   R0,X+
	LD   R27,X
	MOV  R26,R0
	SUBI R26,LOW(-@1)
	SBCI R27,HIGH(-@1)
	ST   X,R30
	.ENDM

	.MACRO __PUTW1SNX
	MOVW R26,R28
	SUBI R26,LOW(-@0)
	SBCI R27,HIGH(-@0)
	LD   R0,X+
	LD   R27,X
	MOV  R26,R0
	SUBI R26,LOW(-@1)
	SBCI R27,HIGH(-@1)
	ST   X+,R30
	ST   X,R31
	.ENDM

	.MACRO __PUTD1SNX
	MOVW R26,R28
	SUBI R26,LOW(-@0)
	SBCI R27,HIGH(-@0)
	LD   R0,X+
	LD   R27,X
	MOV  R26,R0
	SUBI R26,LOW(-@1)
	SBCI R27,HIGH(-@1)
	ST   X+,R30
	ST   X+,R31
	ST   X+,R22
	ST   X,R23
	.ENDM

	.MACRO __MULBRR
	MULS R@0,R@1
	MOVW R30,R0
	.ENDM

	.MACRO __MULBRRU
	MUL  R@0,R@1
	MOVW R30,R0
	.ENDM

	.MACRO __MULBRR0
	MULS R@0,R@1
	.ENDM

	.MACRO __MULBRRU0
	MUL  R@0,R@1
	.ENDM

	.MACRO __MULBNWRU
	LDI  R26,@2
	MUL  R26,R@0
	MOVW R30,R0
	MUL  R26,R@1
	ADD  R31,R0
	.ENDM

;NAME DEFINITIONS FOR GLOBAL VARIABLES ALLOCATED TO REGISTERS
	.DEF _rx_wr_index0=R4
	.DEF _rx_rd_index0=R3
	.DEF _rx_counter0=R6
	.DEF _tx_wr_index0=R5
	.DEF _tx_rd_index0=R8
	.DEF _tx_counter0=R7
	.DEF __lcd_x=R10
	.DEF __lcd_y=R9
	.DEF __lcd_maxx=R12

	.CSEG
	.ORG 0x00

;INTERRUPT VECTORS
	JMP  __RESET
	JMP  0x00
	JMP  0x00
	JMP  0x00
	JMP  0x00
	JMP  0x00
	JMP  0x00
	JMP  0x00
	JMP  0x00
	JMP  0x00
	JMP  0x00
	JMP  0x00
	JMP  0x00
	JMP  0x00
	JMP  0x00
	JMP  0x00
	JMP  0x00
	JMP  0x00
	JMP  0x00
	JMP  0x00
	JMP  _usart0_rx_isr
	JMP  0x00
	JMP  _usart0_tx_isr
	JMP  0x00
	JMP  0x00
	JMP  0x00
	JMP  0x00
	JMP  0x00
	JMP  0x00
	JMP  0x00
	JMP  0x00
	JMP  0x00
	JMP  0x00
	JMP  0x00
	JMP  0x00

_tbl10_G102:
	.DB  0x10,0x27,0xE8,0x3,0x64,0x0,0xA,0x0
	.DB  0x1,0x0
_tbl16_G102:
	.DB  0x0,0x10,0x0,0x1,0x10,0x0,0x1,0x0

_0x0:
	.DB  0x4D,0x3A,0x25,0x73,0x0,0x43,0x6F,0x75
	.DB  0x6E,0x74,0x65,0x72,0x20,0x3A,0x25,0x64
	.DB  0x0
_0x2020003:
	.DB  0x80,0xC0

__GLOBAL_INI_TBL:
	.DW  0x02
	.DW  __base_y_G101
	.DW  _0x2020003*2

_0xFFFFFFFF:
	.DW  0

__RESET:
	CLI
	CLR  R30
	OUT  EECR,R30

;INTERRUPT VECTORS ARE PLACED
;AT THE START OF FLASH
	LDI  R31,1
	OUT  MCUCR,R31
	OUT  MCUCR,R30

;DISABLE WATCHDOG
	LDI  R31,0x18
	WDR
	IN   R26,MCUSR
	CBR  R26,8
	OUT  MCUSR,R26
	STS  WDTCSR,R31
	STS  WDTCSR,R30

;CLEAR R2-R14
	LDI  R24,(14-2)+1
	LDI  R26,2
	CLR  R27
__CLEAR_REG:
	ST   X+,R30
	DEC  R24
	BRNE __CLEAR_REG

;CLEAR SRAM
	LDI  R24,LOW(0x4000)
	LDI  R25,HIGH(0x4000)
	LDI  R26,LOW(0x100)
	LDI  R27,HIGH(0x100)
__CLEAR_SRAM:
	ST   X+,R30
	SBIW R24,1
	BRNE __CLEAR_SRAM

;GLOBAL VARIABLES INITIALIZATION
	LDI  R30,LOW(__GLOBAL_INI_TBL*2)
	LDI  R31,HIGH(__GLOBAL_INI_TBL*2)
__GLOBAL_INI_NEXT:
	LPM  R24,Z+
	LPM  R25,Z+
	SBIW R24,0
	BREQ __GLOBAL_INI_END
	LPM  R26,Z+
	LPM  R27,Z+
	LPM  R0,Z+
	LPM  R1,Z+
	MOVW R22,R30
	MOVW R30,R0
__GLOBAL_INI_LOOP:
	LPM  R0,Z+
	ST   X+,R0
	SBIW R24,1
	BRNE __GLOBAL_INI_LOOP
	MOVW R30,R22
	RJMP __GLOBAL_INI_NEXT
__GLOBAL_INI_END:

	OUT  RAMPZ,R24

;GPIOR0 INITIALIZATION
	LDI  R30,0x00
	OUT  GPIOR0,R30

;STACK POINTER INITIALIZATION
	LDI  R30,LOW(0x40FF)
	OUT  SPL,R30
	LDI  R30,HIGH(0x40FF)
	OUT  SPH,R30

;DATA STACK POINTER INITIALIZATION
	LDI  R28,LOW(0x1100)
	LDI  R29,HIGH(0x1100)

	JMP  _main

	.ESEG
	.ORG 0

	.DSEG
	.ORG 0x1100

	.CSEG
;/*****************************************************
;This program was produced by the
;CodeWizardAVR V2.04.4a Advanced
;Automatic Program Generator
;© Copyright 1998-2009 Pavel Haiduc, HP InfoTech s.r.l.
;http://www.hpinfotech.com
;
;Project :
;Version :
;Date    : 11/3/2011
;Author  : NeVaDa
;Company : WERD
;Comments:
;
;
;Chip type               : ATmega1284P
;Program type            : Application
;AVR Core Clock frequency: 8.000000 MHz
;Memory model            : Small
;External RAM size       : 0
;Data Stack size         : 4096
;*****************************************************/
;
;#include <mega1284p.h>
	#ifndef __SLEEP_DEFINED__
	#define __SLEEP_DEFINED__
	.EQU __se_bit=0x01
	.EQU __sm_mask=0x0E
	.EQU __sm_powerdown=0x04
	.EQU __sm_powersave=0x06
	.EQU __sm_standby=0x0C
	.EQU __sm_ext_standby=0x0E
	.EQU __sm_adc_noise_red=0x02
	.SET power_ctrl_reg=smcr
	#endif
;#include <delay.h>
;// 1 Wire Bus functions
;#asm
   .equ __w1_port=0x0B ;PORTD
   .equ __w1_bit=7
; 0000 001E #endasm
;#include <1wire.h>
;
;// DS1820 Temperature Sensor functions
;#include <ds1820.h>
;
;// maximum number of DS1820 devices
;// connected to the 1 Wire bus
;
;//-----------------------------------#define MAX_DS1820 8
;// number of DS1820 devices
;// connected to the 1 Wire bus
;//-----------------------------------unsigned char ds1820_devices;
;// DS1820 devices ROM code storage area,
;// 9 bytes are used for each device
;// (see the w1_search function description in the help)
;
;//-----------------------------------unsigned char ds1820_rom_codes[MAX_DS1820][9];
;
;// Alphanumeric LCD Module functions
;#asm
   .equ __lcd_port=0x05 ;PORTB
; 0000 0034 #endasm
;#include <lcd.h>
;
;#ifndef RXB8
;#define RXB8 1
;#endif
;
;#ifndef TXB8
;#define TXB8 0
;#endif
;
;#ifndef UPE
;#define UPE 2
;#endif
;
;#ifndef DOR
;#define DOR 3
;#endif
;
;#ifndef FE
;#define FE 4
;#endif
;
;#ifndef UDRE
;#define UDRE 5
;#endif
;
;#ifndef RXC
;#define RXC 7
;#endif
;
;#define FRAMING_ERROR (1<<FE)
;#define PARITY_ERROR (1<<UPE)
;#define DATA_OVERRUN (1<<DOR)
;#define DATA_REGISTER_EMPTY (1<<UDRE)
;#define RX_COMPLETE (1<<RXC)
;
;// USART0 Receiver buffer
;#define RX_BUFFER_SIZE0 8
;char rx_buffer0[RX_BUFFER_SIZE0];
;
;#if RX_BUFFER_SIZE0<256
;unsigned char rx_wr_index0,rx_rd_index0,rx_counter0;
;#else
;unsigned int rx_wr_index0,rx_rd_index0,rx_counter0;
;#endif
;
;// This flag is set on USART0 Receiver buffer overflow
;bit rx_buffer_overflow0;
;
;// USART0 Receiver interrupt service routine
;interrupt [USART0_RXC] void usart0_rx_isr(void)
; 0000 0068 {

	.CSEG
_usart0_rx_isr:
	ST   -Y,R30
	ST   -Y,R31
	IN   R30,SREG
	ST   -Y,R30
; 0000 0069 char status,data;
; 0000 006A status=UCSR0A;
	ST   -Y,R17
	ST   -Y,R16
;	status -> R17
;	data -> R16
	LDS  R17,192
; 0000 006B data=UDR0;
	LDS  R16,198
; 0000 006C if ((status & (FRAMING_ERROR | PARITY_ERROR | DATA_OVERRUN))==0)
	MOV  R30,R17
	ANDI R30,LOW(0x1C)
	BRNE _0x3
; 0000 006D    {
; 0000 006E    rx_buffer0[rx_wr_index0]=data;
	MOV  R30,R4
	LDI  R31,0
	SUBI R30,LOW(-_rx_buffer0)
	SBCI R31,HIGH(-_rx_buffer0)
	ST   Z,R16
; 0000 006F    if (++rx_wr_index0 == RX_BUFFER_SIZE0) rx_wr_index0=0;
	INC  R4
	LDI  R30,LOW(8)
	CP   R30,R4
	BRNE _0x4
	CLR  R4
; 0000 0070    if (++rx_counter0 == RX_BUFFER_SIZE0)
_0x4:
	INC  R6
	LDI  R30,LOW(8)
	CP   R30,R6
	BRNE _0x5
; 0000 0071       {
; 0000 0072       rx_counter0=0;
	CLR  R6
; 0000 0073       rx_buffer_overflow0=1;
	SBI  0x1E,0
; 0000 0074       };
_0x5:
; 0000 0075    };
_0x3:
; 0000 0076 }
	LD   R16,Y+
	LD   R17,Y+
	RJMP _0x21
;
;#ifndef _DEBUG_TERMINAL_IO_
;// Get a character from the USART0 Receiver buffer
;#define _ALTERNATE_GETCHAR_
;#pragma used+
;char getchar(void)
; 0000 007D {
; 0000 007E char data;
; 0000 007F while (rx_counter0==0);
;	data -> R17
; 0000 0080 data=rx_buffer0[rx_rd_index0];
; 0000 0081 if (++rx_rd_index0 == RX_BUFFER_SIZE0) rx_rd_index0=0;
; 0000 0082 #asm("cli")
; 0000 0083 --rx_counter0;
; 0000 0084 #asm("sei")
; 0000 0085 return data;
; 0000 0086 }
;#pragma used-
;#endif
;
;// USART0 Transmitter buffer
;#define TX_BUFFER_SIZE0 8
;char tx_buffer0[TX_BUFFER_SIZE0];
;
;#if TX_BUFFER_SIZE0<256
;unsigned char tx_wr_index0,tx_rd_index0,tx_counter0;
;#else
;unsigned int tx_wr_index0,tx_rd_index0,tx_counter0;
;#endif
;
;// USART0 Transmitter interrupt service routine
;interrupt [USART0_TXC] void usart0_tx_isr(void)
; 0000 0096 {
_usart0_tx_isr:
	ST   -Y,R30
	ST   -Y,R31
	IN   R30,SREG
	ST   -Y,R30
; 0000 0097 if (tx_counter0)
	TST  R7
	BREQ _0xC
; 0000 0098    {
; 0000 0099    --tx_counter0;
	DEC  R7
; 0000 009A    UDR0=tx_buffer0[tx_rd_index0];
	MOV  R30,R8
	LDI  R31,0
	SUBI R30,LOW(-_tx_buffer0)
	SBCI R31,HIGH(-_tx_buffer0)
	LD   R30,Z
	STS  198,R30
; 0000 009B    if (++tx_rd_index0 == TX_BUFFER_SIZE0) tx_rd_index0=0;
	INC  R8
	LDI  R30,LOW(8)
	CP   R30,R8
	BRNE _0xD
	CLR  R8
; 0000 009C    };
_0xD:
_0xC:
; 0000 009D }
_0x21:
	LD   R30,Y+
	OUT  SREG,R30
	LD   R31,Y+
	LD   R30,Y+
	RETI
;
;#ifndef _DEBUG_TERMINAL_IO_
;// Write a character to the USART0 Transmitter buffer
;#define _ALTERNATE_PUTCHAR_
;#pragma used+
;void putchar(char c)
; 0000 00A4 {
; 0000 00A5 while (tx_counter0 == TX_BUFFER_SIZE0);
;	c -> Y+0
; 0000 00A6 #asm("cli")
; 0000 00A7 if (tx_counter0 || ((UCSR0A & DATA_REGISTER_EMPTY)==0))
; 0000 00A8    {
; 0000 00A9    tx_buffer0[tx_wr_index0]=c;
; 0000 00AA    if (++tx_wr_index0 == TX_BUFFER_SIZE0) tx_wr_index0=0;
; 0000 00AB    ++tx_counter0;
; 0000 00AC    }
; 0000 00AD else
; 0000 00AE    UDR0=c;
; 0000 00AF #asm("sei")
; 0000 00B0 }
;#pragma used-
;#endif
;
;// Standard Input/Output functions
;#include <stdio.h>
;
;// Declare your global variables here
;
;void main(void)
; 0000 00BA {
_main:
; 0000 00BB   char led_stat = 0;
; 0000 00BC   char data1[32];
; 0000 00BD   char data2[32];
; 0000 00BE   int counter = 0;
; 0000 00BF // Declare your local variables here
; 0000 00C0 
; 0000 00C1 // Input/Output Ports initialization
; 0000 00C2 // Port A initialization
; 0000 00C3 // Func7=In Func6=In Func5=In Func4=In Func3=In Func2=In Func1=In Func0=In
; 0000 00C4 // State7=T State6=T State5=T State4=T State3=T State2=T State1=T State0=T
; 0000 00C5 PORTA=0x00;
	SBIW R28,63
	SBIW R28,1
;	led_stat -> R17
;	data1 -> Y+32
;	data2 -> Y+0
;	counter -> R18,R19
	LDI  R17,0
	__GETWRN 18,19,0
	LDI  R30,LOW(0)
	OUT  0x2,R30
; 0000 00C6 DDRA=0x00;
	OUT  0x1,R30
; 0000 00C7 
; 0000 00C8 // Port B initialization
; 0000 00C9 // Func7=Out Func6=Out Func5=Out Func4=Out Func3=Out Func2=Out Func1=Out Func0=Out
; 0000 00CA // State7=0 State6=0 State5=0 State4=0 State3=0 State2=0 State1=0 State0=0
; 0000 00CB PORTB=0xFF;
	LDI  R30,LOW(255)
	OUT  0x5,R30
; 0000 00CC DDRB=0xFF;
	OUT  0x4,R30
; 0000 00CD 
; 0000 00CE // Port C initialization
; 0000 00CF // Func7=In Func6=In Func5=In Func4=In Func3=In Func2=In Func1=In Func0=In
; 0000 00D0 // State7=T State6=T State5=T State4=T State3=T State2=T State1=T State0=T
; 0000 00D1 PORTC=0x00;
	LDI  R30,LOW(0)
	OUT  0x8,R30
; 0000 00D2 DDRC=0x00;
	OUT  0x7,R30
; 0000 00D3 
; 0000 00D4 // Port D initialization
; 0000 00D5 // Func7=In Func6=In Func5=In Func4=In Func3=In Func2=In Func1=Out Func0=In
; 0000 00D6 // State7=T State6=T State5=T State4=T State3=T State2=T State1=0 State0=T
; 0000 00D7 PORTD=0x00;
	OUT  0xB,R30
; 0000 00D8 DDRD=0x02;
	LDI  R30,LOW(2)
	OUT  0xA,R30
; 0000 00D9 
; 0000 00DA // Timer/Counter 0 initialization
; 0000 00DB // Clock source: System Clock
; 0000 00DC // Clock value: Timer 0 Stopped
; 0000 00DD // Mode: Normal top=FFh
; 0000 00DE // OC0A output: Disconnected
; 0000 00DF // OC0B output: Disconnected
; 0000 00E0 TCCR0A=0x00;
	LDI  R30,LOW(0)
	OUT  0x24,R30
; 0000 00E1 TCCR0B=0x00;
	OUT  0x25,R30
; 0000 00E2 TCNT0=0x00;
	OUT  0x26,R30
; 0000 00E3 OCR0A=0x00;
	OUT  0x27,R30
; 0000 00E4 OCR0B=0x00;
	OUT  0x28,R30
; 0000 00E5 
; 0000 00E6 // Timer/Counter 1 initialization
; 0000 00E7 // Clock source: System Clock
; 0000 00E8 // Clock value: Timer1 Stopped
; 0000 00E9 // Mode: Normal top=FFFFh
; 0000 00EA // OC1A output: Discon.
; 0000 00EB // OC1B output: Discon.
; 0000 00EC // Noise Canceler: Off
; 0000 00ED // Input Capture on Falling Edge
; 0000 00EE // Timer1 Overflow Interrupt: Off
; 0000 00EF // Input Capture Interrupt: Off
; 0000 00F0 // Compare A Match Interrupt: Off
; 0000 00F1 // Compare B Match Interrupt: Off
; 0000 00F2 TCCR1A=0x00;
	STS  128,R30
; 0000 00F3 TCCR1B=0x00;
	STS  129,R30
; 0000 00F4 TCNT1H=0x00;
	STS  133,R30
; 0000 00F5 TCNT1L=0x00;
	STS  132,R30
; 0000 00F6 ICR1H=0x00;
	STS  135,R30
; 0000 00F7 ICR1L=0x00;
	STS  134,R30
; 0000 00F8 OCR1AH=0x00;
	STS  137,R30
; 0000 00F9 OCR1AL=0x00;
	STS  136,R30
; 0000 00FA OCR1BH=0x00;
	STS  139,R30
; 0000 00FB OCR1BL=0x00;
	STS  138,R30
; 0000 00FC 
; 0000 00FD // Timer/Counter 2 initialization
; 0000 00FE // Clock source: System Clock
; 0000 00FF // Clock value: Timer2 Stopped
; 0000 0100 // Mode: Normal top=FFh
; 0000 0101 // OC2A output: Disconnected
; 0000 0102 // OC2B output: Disconnected
; 0000 0103 ASSR=0x00;
	STS  182,R30
; 0000 0104 TCCR2A=0x00;
	STS  176,R30
; 0000 0105 TCCR2B=0x00;
	STS  177,R30
; 0000 0106 TCNT2=0x00;
	STS  178,R30
; 0000 0107 OCR2A=0x00;
	STS  179,R30
; 0000 0108 OCR2B=0x00;
	STS  180,R30
; 0000 0109 
; 0000 010A // Timer/Counter 3 initialization
; 0000 010B // Clock source: System Clock
; 0000 010C // Clock value: Timer3 Stopped
; 0000 010D // Mode: Normal top=FFFFh
; 0000 010E // OC3A output: Discon.
; 0000 010F // OC3B output: Discon.
; 0000 0110 // Noise Canceler: Off
; 0000 0111 // Input Capture on Falling Edge
; 0000 0112 // Timer3 Overflow Interrupt: Off
; 0000 0113 // Input Capture Interrupt: Off
; 0000 0114 // Compare A Match Interrupt: Off
; 0000 0115 // Compare B Match Interrupt: Off
; 0000 0116 TCCR3A=0x00;
	STS  144,R30
; 0000 0117 TCCR3B=0x00;
	STS  145,R30
; 0000 0118 TCNT3H=0x00;
	STS  149,R30
; 0000 0119 TCNT3L=0x00;
	STS  148,R30
; 0000 011A ICR3H=0x00;
	STS  151,R30
; 0000 011B ICR3L=0x00;
	STS  150,R30
; 0000 011C OCR3AH=0x00;
	STS  153,R30
; 0000 011D OCR3AL=0x00;
	STS  152,R30
; 0000 011E OCR3BH=0x00;
	STS  155,R30
; 0000 011F OCR3BL=0x00;
	STS  154,R30
; 0000 0120 
; 0000 0121 // External Interrupt(s) initialization
; 0000 0122 // INT0: Off
; 0000 0123 // INT1: Off
; 0000 0124 // INT2: Off
; 0000 0125 // Interrupt on any change on pins PCINT0-7: Off
; 0000 0126 // Interrupt on any change on pins PCINT8-15: Off
; 0000 0127 // Interrupt on any change on pins PCINT16-23: Off
; 0000 0128 // Interrupt on any change on pins PCINT24-31: Off
; 0000 0129 EICRA=0x00;
	STS  105,R30
; 0000 012A EIMSK=0x00;
	OUT  0x1D,R30
; 0000 012B PCICR=0x00;
	STS  104,R30
; 0000 012C 
; 0000 012D // Timer/Counter 0 Interrupt(s) initialization
; 0000 012E TIMSK0=0x00;
	STS  110,R30
; 0000 012F // Timer/Counter 1 Interrupt(s) initialization
; 0000 0130 TIMSK1=0x00;
	STS  111,R30
; 0000 0131 // Timer/Counter 2 Interrupt(s) initialization
; 0000 0132 TIMSK2=0x00;
	STS  112,R30
; 0000 0133 // Timer/Counter 3 Interrupt(s) initialization
; 0000 0134 TIMSK3=0x00;
	STS  113,R30
; 0000 0135 
; 0000 0136 // USART0 initialization
; 0000 0137 // Communication Parameters: 8 Data, 1 Stop, No Parity
; 0000 0138 // USART0 Receiver: On
; 0000 0139 // USART0 Transmitter: On
; 0000 013A // USART0 Mode: Asynchronous
; 0000 013B // USART0 Baud Rate: 9600
; 0000 013C UCSR0A=0x00;
	STS  192,R30
; 0000 013D UCSR0B=0xD8;
	LDI  R30,LOW(216)
	STS  193,R30
; 0000 013E UCSR0C=0x06;
	LDI  R30,LOW(6)
	STS  194,R30
; 0000 013F UBRR0H=0x00;
	LDI  R30,LOW(0)
	STS  197,R30
; 0000 0140 UBRR0L=0x33;
	LDI  R30,LOW(51)
	STS  196,R30
; 0000 0141 
; 0000 0142 // Analog Comparator initialization
; 0000 0143 // Analog Comparator: Off
; 0000 0144 // Analog Comparator Input Capture by Timer/Counter 1: Off
; 0000 0145 ACSR=0x80;
	LDI  R30,LOW(128)
	OUT  0x30,R30
; 0000 0146 ADCSRB=0x00;
	LDI  R30,LOW(0)
	STS  123,R30
; 0000 0147 
; 0000 0148 // Determine the number of DS1820 devices
; 0000 0149 // connected to the 1 Wire bus
; 0000 014A 
; 0000 014B //-----------------------------------ds1820_devices=w1_search(0xf0,ds1820_rom_codes);
; 0000 014C 
; 0000 014D // LCD module initialization
; 0000 014E lcd_init(16);
	LDI  R30,LOW(16)
	ST   -Y,R30
	CALL _lcd_init
; 0000 014F 
; 0000 0150 // Global enable interrupts
; 0000 0151 #asm("sei")
	sei
; 0000 0152 
; 0000 0153         while (1)
_0x16:
; 0000 0154         {
; 0000 0155 
; 0000 0156                 // Place your code here
; 0000 0157 
; 0000 0158 
; 0000 0159                 if(led_stat == 0)
	CPI  R17,0
	BRNE _0x19
; 0000 015A                 {
; 0000 015B                         sprintf(data1,"M:%s",rx_buffer0);
	MOVW R30,R28
	ADIW R30,32
	ST   -Y,R31
	ST   -Y,R30
	__POINTW1FN _0x0,0
	ST   -Y,R31
	ST   -Y,R30
	LDI  R30,LOW(_rx_buffer0)
	LDI  R31,HIGH(_rx_buffer0)
	CLR  R22
	CLR  R23
	CALL SUBOPT_0x0
; 0000 015C                         PORTB.3 = 1;
	SBI  0x5,3
; 0000 015D                         led_stat = 1;
	LDI  R17,LOW(1)
; 0000 015E                         lcd_gotoxy(0,0);
	LDI  R30,LOW(0)
	ST   -Y,R30
	ST   -Y,R30
	CALL _lcd_gotoxy
; 0000 015F                         lcd_puts(data1);
	MOVW R30,R28
	ADIW R30,32
	ST   -Y,R31
	ST   -Y,R30
	CALL _lcd_puts
; 0000 0160                         delay_ms(100);
	LDI  R30,LOW(100)
	LDI  R31,HIGH(100)
	ST   -Y,R31
	ST   -Y,R30
	CALL _delay_ms
; 0000 0161                 }
; 0000 0162                 else
	RJMP _0x1C
_0x19:
; 0000 0163                 {
; 0000 0164                         PORTB.3 = 0;
	CBI  0x5,3
; 0000 0165                         led_stat = 0;
	LDI  R17,LOW(0)
; 0000 0166 
; 0000 0167                         counter++;
	__ADDWRN 18,19,1
; 0000 0168                         //lcd_puts(data1);
; 0000 0169                         //lcd_clear();
; 0000 016A                         lcd_gotoxy(0,1);
	LDI  R30,LOW(0)
	ST   -Y,R30
	LDI  R30,LOW(1)
	ST   -Y,R30
	CALL _lcd_gotoxy
; 0000 016B                         //delay_ms(150*8);
; 0000 016C                         sprintf(data2, "Counter :%d",counter);
	MOVW R30,R28
	ST   -Y,R31
	ST   -Y,R30
	__POINTW1FN _0x0,5
	ST   -Y,R31
	ST   -Y,R30
	MOVW R30,R18
	CALL __CWD1
	CALL SUBOPT_0x0
; 0000 016D                         lcd_puts(data2);
	MOVW R30,R28
	ST   -Y,R31
	ST   -Y,R30
	CALL _lcd_puts
; 0000 016E                         delay_ms(150);
	LDI  R30,LOW(150)
	LDI  R31,HIGH(150)
	ST   -Y,R31
	ST   -Y,R30
	CALL _delay_ms
; 0000 016F                         //putchar('A');
; 0000 0170                         if(counter > 2000)
	__CPWRN 18,19,2001
	BRLT _0x1F
; 0000 0171                                 counter = 0;
	__GETWRN 18,19,0
; 0000 0172                 }
_0x1F:
_0x1C:
; 0000 0173 
; 0000 0174         };
	RJMP _0x16
; 0000 0175 }
_0x20:
	RJMP _0x20

	.CSEG
    .equ __lcd_direction=__lcd_port-1
    .equ __lcd_pin=__lcd_port-2
    .equ __lcd_rs=0
    .equ __lcd_rd=1
    .equ __lcd_enable=2
    .equ __lcd_busy_flag=7

	.DSEG

	.CSEG
__lcd_delay_G101:
    ldi   r31,15
__lcd_delay0:
    dec   r31
    brne  __lcd_delay0
	RET
__lcd_ready:
    in    r26,__lcd_direction
    andi  r26,0xf                 ;set as input
    out   __lcd_direction,r26
    sbi   __lcd_port,__lcd_rd     ;RD=1
    cbi   __lcd_port,__lcd_rs     ;RS=0
__lcd_busy:
	RCALL __lcd_delay_G101
    sbi   __lcd_port,__lcd_enable ;EN=1
	RCALL __lcd_delay_G101
    in    r26,__lcd_pin
    cbi   __lcd_port,__lcd_enable ;EN=0
	RCALL __lcd_delay_G101
    sbi   __lcd_port,__lcd_enable ;EN=1
	RCALL __lcd_delay_G101
    cbi   __lcd_port,__lcd_enable ;EN=0
    sbrc  r26,__lcd_busy_flag
    rjmp  __lcd_busy
	RET
__lcd_write_nibble_G101:
    andi  r26,0xf0
    or    r26,r27
    out   __lcd_port,r26          ;write
    sbi   __lcd_port,__lcd_enable ;EN=1
	CALL __lcd_delay_G101
    cbi   __lcd_port,__lcd_enable ;EN=0
	CALL __lcd_delay_G101
	RET
__lcd_write_data:
    cbi  __lcd_port,__lcd_rd 	  ;RD=0
    in    r26,__lcd_direction
    ori   r26,0xf0 | (1<<__lcd_rs) | (1<<__lcd_rd) | (1<<__lcd_enable) ;set as output
    out   __lcd_direction,r26
    in    r27,__lcd_port
    andi  r27,0xf
    ld    r26,y
	RCALL __lcd_write_nibble_G101
    ld    r26,y
    swap  r26
	RCALL __lcd_write_nibble_G101
    sbi   __lcd_port,__lcd_rd     ;RD=1
	JMP  _0x20A0002
__lcd_read_nibble_G101:
    sbi   __lcd_port,__lcd_enable ;EN=1
	CALL __lcd_delay_G101
    in    r30,__lcd_pin           ;read
    cbi   __lcd_port,__lcd_enable ;EN=0
	CALL __lcd_delay_G101
    andi  r30,0xf0
	RET
_lcd_read_byte0_G101:
	CALL __lcd_delay_G101
	RCALL __lcd_read_nibble_G101
    mov   r26,r30
	RCALL __lcd_read_nibble_G101
    cbi   __lcd_port,__lcd_rd     ;RD=0
    swap  r30
    or    r30,r26
	RET
_lcd_gotoxy:
	CALL __lcd_ready
	LD   R30,Y
	LDI  R31,0
	SUBI R30,LOW(-__base_y_G101)
	SBCI R31,HIGH(-__base_y_G101)
	LD   R30,Z
	LDD  R26,Y+1
	ADD  R30,R26
	ST   -Y,R30
	CALL __lcd_write_data
	LDD  R10,Y+1
	LDD  R9,Y+0
	ADIW R28,2
	RET
_lcd_clear:
	CALL __lcd_ready
	LDI  R30,LOW(2)
	ST   -Y,R30
	CALL __lcd_write_data
	CALL __lcd_ready
	LDI  R30,LOW(12)
	ST   -Y,R30
	CALL __lcd_write_data
	CALL __lcd_ready
	LDI  R30,LOW(1)
	ST   -Y,R30
	CALL __lcd_write_data
	LDI  R30,LOW(0)
	MOV  R9,R30
	MOV  R10,R30
	RET
_lcd_putchar:
    push r30
    push r31
    ld   r26,y
    set
    cpi  r26,10
    breq __lcd_putchar1
    clt
	CP   R10,R12
	BRLO _0x2020004
	__lcd_putchar1:
	INC  R9
	LDI  R30,LOW(0)
	ST   -Y,R30
	ST   -Y,R9
	RCALL _lcd_gotoxy
	brts __lcd_putchar0
_0x2020004:
	INC  R10
    rcall __lcd_ready
    sbi  __lcd_port,__lcd_rs ;RS=1
    ld   r26,y
    st   -y,r26
    rcall __lcd_write_data
__lcd_putchar0:
    pop  r31
    pop  r30
	JMP  _0x20A0002
_lcd_puts:
	ST   -Y,R17
_0x2020005:
	LDD  R26,Y+1
	LDD  R27,Y+1+1
	LD   R30,X+
	STD  Y+1,R26
	STD  Y+1+1,R27
	MOV  R17,R30
	CPI  R30,0
	BREQ _0x2020007
	ST   -Y,R17
	RCALL _lcd_putchar
	RJMP _0x2020005
_0x2020007:
	LDD  R17,Y+0
	ADIW R28,3
	RET
__long_delay_G101:
    clr   r26
    clr   r27
__long_delay0:
    sbiw  r26,1         ;2 cycles
    brne  __long_delay0 ;2 cycles
	RET
__lcd_init_write_G101:
    cbi  __lcd_port,__lcd_rd 	  ;RD=0
    in    r26,__lcd_direction
    ori   r26,0xf7                ;set as output
    out   __lcd_direction,r26
    in    r27,__lcd_port
    andi  r27,0xf
    ld    r26,y
	CALL __lcd_write_nibble_G101
    sbi   __lcd_port,__lcd_rd     ;RD=1
	RJMP _0x20A0002
_lcd_init:
    cbi   __lcd_port,__lcd_enable ;EN=0
    cbi   __lcd_port,__lcd_rs     ;RS=0
	LDD  R12,Y+0
	LD   R30,Y
	SUBI R30,-LOW(128)
	__PUTB1MN __base_y_G101,2
	LD   R30,Y
	SUBI R30,-LOW(192)
	__PUTB1MN __base_y_G101,3
	CALL SUBOPT_0x1
	CALL SUBOPT_0x1
	CALL SUBOPT_0x1
	RCALL __long_delay_G101
	LDI  R30,LOW(32)
	ST   -Y,R30
	RCALL __lcd_init_write_G101
	RCALL __long_delay_G101
	LDI  R30,LOW(40)
	CALL SUBOPT_0x2
	LDI  R30,LOW(4)
	CALL SUBOPT_0x2
	LDI  R30,LOW(133)
	CALL SUBOPT_0x2
    in    r26,__lcd_direction
    andi  r26,0xf                 ;set as input
    out   __lcd_direction,r26
    sbi   __lcd_port,__lcd_rd     ;RD=1
	CALL _lcd_read_byte0_G101
	CPI  R30,LOW(0x5)
	BREQ _0x202000B
	LDI  R30,LOW(0)
	RJMP _0x20A0002
_0x202000B:
	CALL __lcd_ready
	LDI  R30,LOW(6)
	ST   -Y,R30
	CALL __lcd_write_data
	CALL _lcd_clear
	LDI  R30,LOW(1)
_0x20A0002:
	ADIW R28,1
	RET
	#ifndef __SLEEP_DEFINED__
	#define __SLEEP_DEFINED__
	.EQU __se_bit=0x01
	.EQU __sm_mask=0x0E
	.EQU __sm_powerdown=0x04
	.EQU __sm_powersave=0x06
	.EQU __sm_standby=0x0C
	.EQU __sm_ext_standby=0x0E
	.EQU __sm_adc_noise_red=0x02
	.SET power_ctrl_reg=smcr
	#endif

	.CSEG
_put_buff_G102:
	ST   -Y,R17
	ST   -Y,R16
	LDD  R26,Y+2
	LDD  R27,Y+2+1
	ADIW R26,2
	CALL __GETW1P
	SBIW R30,0
	BREQ _0x2040010
	LDD  R26,Y+2
	LDD  R27,Y+2+1
	ADIW R26,4
	CALL __GETW1P
	MOVW R16,R30
	SBIW R30,0
	BREQ _0x2040012
	__CPWRN 16,17,2
	BRLO _0x2040013
	MOVW R30,R16
	SBIW R30,1
	MOVW R16,R30
	__PUTW1SNS 2,4
_0x2040012:
	LDD  R26,Y+2
	LDD  R27,Y+2+1
	ADIW R26,2
	LD   R30,X+
	LD   R31,X+
	ADIW R30,1
	ST   -X,R31
	ST   -X,R30
	SBIW R30,1
	LDD  R26,Y+4
	STD  Z+0,R26
	LDD  R26,Y+2
	LDD  R27,Y+2+1
	CALL __GETW1P
	TST  R31
	BRMI _0x2040014
	LD   R30,X+
	LD   R31,X+
	ADIW R30,1
	ST   -X,R31
	ST   -X,R30
_0x2040014:
_0x2040013:
	RJMP _0x2040015
_0x2040010:
	LDD  R26,Y+2
	LDD  R27,Y+2+1
	LDI  R30,LOW(65535)
	LDI  R31,HIGH(65535)
	ST   X+,R30
	ST   X,R31
_0x2040015:
	LDD  R17,Y+1
	LDD  R16,Y+0
	ADIW R28,5
	RET
__print_G102:
	SBIW R28,6
	CALL __SAVELOCR6
	LDI  R17,0
	LDD  R26,Y+12
	LDD  R27,Y+12+1
	LDI  R30,LOW(0)
	LDI  R31,HIGH(0)
	ST   X+,R30
	ST   X,R31
_0x2040016:
	LDD  R30,Y+18
	LDD  R31,Y+18+1
	ADIW R30,1
	STD  Y+18,R30
	STD  Y+18+1,R31
	SBIW R30,1
	LPM  R30,Z
	MOV  R18,R30
	CPI  R30,0
	BRNE PC+3
	JMP _0x2040018
	MOV  R30,R17
	CPI  R30,0
	BRNE _0x204001C
	CPI  R18,37
	BRNE _0x204001D
	LDI  R17,LOW(1)
	RJMP _0x204001E
_0x204001D:
	CALL SUBOPT_0x3
_0x204001E:
	RJMP _0x204001B
_0x204001C:
	CPI  R30,LOW(0x1)
	BRNE _0x204001F
	CPI  R18,37
	BRNE _0x2040020
	CALL SUBOPT_0x3
	RJMP _0x20400C9
_0x2040020:
	LDI  R17,LOW(2)
	LDI  R20,LOW(0)
	LDI  R16,LOW(0)
	CPI  R18,45
	BRNE _0x2040021
	LDI  R16,LOW(1)
	RJMP _0x204001B
_0x2040021:
	CPI  R18,43
	BRNE _0x2040022
	LDI  R20,LOW(43)
	RJMP _0x204001B
_0x2040022:
	CPI  R18,32
	BRNE _0x2040023
	LDI  R20,LOW(32)
	RJMP _0x204001B
_0x2040023:
	RJMP _0x2040024
_0x204001F:
	CPI  R30,LOW(0x2)
	BRNE _0x2040025
_0x2040024:
	LDI  R21,LOW(0)
	LDI  R17,LOW(3)
	CPI  R18,48
	BRNE _0x2040026
	ORI  R16,LOW(128)
	RJMP _0x204001B
_0x2040026:
	RJMP _0x2040027
_0x2040025:
	CPI  R30,LOW(0x3)
	BREQ PC+3
	JMP _0x204001B
_0x2040027:
	CPI  R18,48
	BRLO _0x204002A
	CPI  R18,58
	BRLO _0x204002B
_0x204002A:
	RJMP _0x2040029
_0x204002B:
	LDI  R26,LOW(10)
	MUL  R21,R26
	MOV  R21,R0
	MOV  R30,R18
	SUBI R30,LOW(48)
	ADD  R21,R30
	RJMP _0x204001B
_0x2040029:
	MOV  R30,R18
	CPI  R30,LOW(0x63)
	BRNE _0x204002F
	CALL SUBOPT_0x4
	LDD  R30,Y+16
	LDD  R31,Y+16+1
	LDD  R26,Z+4
	ST   -Y,R26
	CALL SUBOPT_0x5
	RJMP _0x2040030
_0x204002F:
	CPI  R30,LOW(0x73)
	BRNE _0x2040032
	CALL SUBOPT_0x4
	CALL SUBOPT_0x6
	CALL _strlen
	MOV  R17,R30
	RJMP _0x2040033
_0x2040032:
	CPI  R30,LOW(0x70)
	BRNE _0x2040035
	CALL SUBOPT_0x4
	CALL SUBOPT_0x6
	CALL _strlenf
	MOV  R17,R30
	ORI  R16,LOW(8)
_0x2040033:
	ORI  R16,LOW(2)
	ANDI R16,LOW(127)
	LDI  R19,LOW(0)
	RJMP _0x2040036
_0x2040035:
	CPI  R30,LOW(0x64)
	BREQ _0x2040039
	CPI  R30,LOW(0x69)
	BRNE _0x204003A
_0x2040039:
	ORI  R16,LOW(4)
	RJMP _0x204003B
_0x204003A:
	CPI  R30,LOW(0x75)
	BRNE _0x204003C
_0x204003B:
	LDI  R30,LOW(_tbl10_G102*2)
	LDI  R31,HIGH(_tbl10_G102*2)
	STD  Y+6,R30
	STD  Y+6+1,R31
	LDI  R17,LOW(5)
	RJMP _0x204003D
_0x204003C:
	CPI  R30,LOW(0x58)
	BRNE _0x204003F
	ORI  R16,LOW(8)
	RJMP _0x2040040
_0x204003F:
	CPI  R30,LOW(0x78)
	BREQ PC+3
	JMP _0x2040071
_0x2040040:
	LDI  R30,LOW(_tbl16_G102*2)
	LDI  R31,HIGH(_tbl16_G102*2)
	STD  Y+6,R30
	STD  Y+6+1,R31
	LDI  R17,LOW(4)
_0x204003D:
	SBRS R16,2
	RJMP _0x2040042
	CALL SUBOPT_0x4
	CALL SUBOPT_0x7
	LDD  R26,Y+11
	TST  R26
	BRPL _0x2040043
	LDD  R30,Y+10
	LDD  R31,Y+10+1
	CALL __ANEGW1
	STD  Y+10,R30
	STD  Y+10+1,R31
	LDI  R20,LOW(45)
_0x2040043:
	CPI  R20,0
	BREQ _0x2040044
	SUBI R17,-LOW(1)
	RJMP _0x2040045
_0x2040044:
	ANDI R16,LOW(251)
_0x2040045:
	RJMP _0x2040046
_0x2040042:
	CALL SUBOPT_0x4
	CALL SUBOPT_0x7
_0x2040046:
_0x2040036:
	SBRC R16,0
	RJMP _0x2040047
_0x2040048:
	CP   R17,R21
	BRSH _0x204004A
	SBRS R16,7
	RJMP _0x204004B
	SBRS R16,2
	RJMP _0x204004C
	ANDI R16,LOW(251)
	MOV  R18,R20
	SUBI R17,LOW(1)
	RJMP _0x204004D
_0x204004C:
	LDI  R18,LOW(48)
_0x204004D:
	RJMP _0x204004E
_0x204004B:
	LDI  R18,LOW(32)
_0x204004E:
	CALL SUBOPT_0x3
	SUBI R21,LOW(1)
	RJMP _0x2040048
_0x204004A:
_0x2040047:
	MOV  R19,R17
	SBRS R16,1
	RJMP _0x204004F
_0x2040050:
	CPI  R19,0
	BREQ _0x2040052
	SBRS R16,3
	RJMP _0x2040053
	LDD  R30,Y+6
	LDD  R31,Y+6+1
	LPM  R18,Z+
	STD  Y+6,R30
	STD  Y+6+1,R31
	RJMP _0x2040054
_0x2040053:
	LDD  R26,Y+6
	LDD  R27,Y+6+1
	LD   R18,X+
	STD  Y+6,R26
	STD  Y+6+1,R27
_0x2040054:
	CALL SUBOPT_0x3
	CPI  R21,0
	BREQ _0x2040055
	SUBI R21,LOW(1)
_0x2040055:
	SUBI R19,LOW(1)
	RJMP _0x2040050
_0x2040052:
	RJMP _0x2040056
_0x204004F:
_0x2040058:
	LDI  R18,LOW(48)
	LDD  R30,Y+6
	LDD  R31,Y+6+1
	CALL __GETW1PF
	STD  Y+8,R30
	STD  Y+8+1,R31
	LDD  R30,Y+6
	LDD  R31,Y+6+1
	ADIW R30,2
	STD  Y+6,R30
	STD  Y+6+1,R31
_0x204005A:
	LDD  R30,Y+8
	LDD  R31,Y+8+1
	LDD  R26,Y+10
	LDD  R27,Y+10+1
	CP   R26,R30
	CPC  R27,R31
	BRLO _0x204005C
	SUBI R18,-LOW(1)
	LDD  R26,Y+8
	LDD  R27,Y+8+1
	LDD  R30,Y+10
	LDD  R31,Y+10+1
	SUB  R30,R26
	SBC  R31,R27
	STD  Y+10,R30
	STD  Y+10+1,R31
	RJMP _0x204005A
_0x204005C:
	CPI  R18,58
	BRLO _0x204005D
	SBRS R16,3
	RJMP _0x204005E
	SUBI R18,-LOW(7)
	RJMP _0x204005F
_0x204005E:
	SUBI R18,-LOW(39)
_0x204005F:
_0x204005D:
	SBRC R16,4
	RJMP _0x2040061
	CPI  R18,49
	BRSH _0x2040063
	LDD  R26,Y+8
	LDD  R27,Y+8+1
	SBIW R26,1
	BRNE _0x2040062
_0x2040063:
	RJMP _0x20400CA
_0x2040062:
	CP   R21,R19
	BRLO _0x2040067
	SBRS R16,0
	RJMP _0x2040068
_0x2040067:
	RJMP _0x2040066
_0x2040068:
	LDI  R18,LOW(32)
	SBRS R16,7
	RJMP _0x2040069
	LDI  R18,LOW(48)
_0x20400CA:
	ORI  R16,LOW(16)
	SBRS R16,2
	RJMP _0x204006A
	ANDI R16,LOW(251)
	ST   -Y,R20
	CALL SUBOPT_0x5
	CPI  R21,0
	BREQ _0x204006B
	SUBI R21,LOW(1)
_0x204006B:
_0x204006A:
_0x2040069:
_0x2040061:
	CALL SUBOPT_0x3
	CPI  R21,0
	BREQ _0x204006C
	SUBI R21,LOW(1)
_0x204006C:
_0x2040066:
	SUBI R19,LOW(1)
	LDD  R26,Y+8
	LDD  R27,Y+8+1
	SBIW R26,2
	BRLO _0x2040059
	RJMP _0x2040058
_0x2040059:
_0x2040056:
	SBRS R16,0
	RJMP _0x204006D
_0x204006E:
	CPI  R21,0
	BREQ _0x2040070
	SUBI R21,LOW(1)
	LDI  R30,LOW(32)
	ST   -Y,R30
	CALL SUBOPT_0x5
	RJMP _0x204006E
_0x2040070:
_0x204006D:
_0x2040071:
_0x2040030:
_0x20400C9:
	LDI  R17,LOW(0)
_0x204001B:
	RJMP _0x2040016
_0x2040018:
	LDD  R26,Y+12
	LDD  R27,Y+12+1
	CALL __GETW1P
	CALL __LOADLOCR6
	ADIW R28,20
	RET
_sprintf:
	PUSH R15
	MOV  R15,R24
	SBIW R28,6
	CALL __SAVELOCR4
	CALL SUBOPT_0x8
	SBIW R30,0
	BRNE _0x2040072
	LDI  R30,LOW(65535)
	LDI  R31,HIGH(65535)
	RJMP _0x20A0001
_0x2040072:
	MOVW R26,R28
	ADIW R26,6
	CALL __ADDW2R15
	MOVW R16,R26
	CALL SUBOPT_0x8
	STD  Y+6,R30
	STD  Y+6+1,R31
	LDI  R30,LOW(0)
	STD  Y+8,R30
	STD  Y+8+1,R30
	MOVW R26,R28
	ADIW R26,10
	CALL __ADDW2R15
	CALL __GETW1P
	ST   -Y,R31
	ST   -Y,R30
	ST   -Y,R17
	ST   -Y,R16
	LDI  R30,LOW(_put_buff_G102)
	LDI  R31,HIGH(_put_buff_G102)
	ST   -Y,R31
	ST   -Y,R30
	MOVW R30,R28
	ADIW R30,10
	ST   -Y,R31
	ST   -Y,R30
	RCALL __print_G102
	MOVW R18,R30
	LDD  R26,Y+6
	LDD  R27,Y+6+1
	LDI  R30,LOW(0)
	ST   X,R30
	MOVW R30,R18
_0x20A0001:
	CALL __LOADLOCR4
	ADIW R28,10
	POP  R15
	RET

	.CSEG

	.CSEG
_strlen:
    ld   r26,y+
    ld   r27,y+
    clr  r30
    clr  r31
strlen0:
    ld   r22,x+
    tst  r22
    breq strlen1
    adiw r30,1
    rjmp strlen0
strlen1:
    ret
_strlenf:
    clr  r26
    clr  r27
    ld   r30,y+
    ld   r31,y+
strlenf0:
	lpm  r0,z+
    tst  r0
    breq strlenf1
    adiw r26,1
    rjmp strlenf0
strlenf1:
    movw r30,r26
    ret

	.DSEG
___ds1820_scratch_pad:
	.BYTE 0x9
_rx_buffer0:
	.BYTE 0x8
_tx_buffer0:
	.BYTE 0x8
__base_y_G101:
	.BYTE 0x4

	.CSEG
;OPTIMIZER ADDED SUBROUTINE, CALLED 2 TIMES, CODE SIZE REDUCTION:1 WORDS
SUBOPT_0x0:
	CALL __PUTPARD1
	LDI  R24,4
	CALL _sprintf
	ADIW R28,8
	RET

;OPTIMIZER ADDED SUBROUTINE, CALLED 3 TIMES, CODE SIZE REDUCTION:5 WORDS
SUBOPT_0x1:
	CALL __long_delay_G101
	LDI  R30,LOW(48)
	ST   -Y,R30
	JMP  __lcd_init_write_G101

;OPTIMIZER ADDED SUBROUTINE, CALLED 3 TIMES, CODE SIZE REDUCTION:3 WORDS
SUBOPT_0x2:
	ST   -Y,R30
	CALL __lcd_write_data
	JMP  __long_delay_G101

;OPTIMIZER ADDED SUBROUTINE, CALLED 5 TIMES, CODE SIZE REDUCTION:21 WORDS
SUBOPT_0x3:
	ST   -Y,R18
	LDD  R30,Y+13
	LDD  R31,Y+13+1
	ST   -Y,R31
	ST   -Y,R30
	LDD  R30,Y+17
	LDD  R31,Y+17+1
	ICALL
	RET

;OPTIMIZER ADDED SUBROUTINE, CALLED 5 TIMES, CODE SIZE REDUCTION:9 WORDS
SUBOPT_0x4:
	LDD  R30,Y+16
	LDD  R31,Y+16+1
	SBIW R30,4
	STD  Y+16,R30
	STD  Y+16+1,R31
	RET

;OPTIMIZER ADDED SUBROUTINE, CALLED 3 TIMES, CODE SIZE REDUCTION:7 WORDS
SUBOPT_0x5:
	LDD  R30,Y+13
	LDD  R31,Y+13+1
	ST   -Y,R31
	ST   -Y,R30
	LDD  R30,Y+17
	LDD  R31,Y+17+1
	ICALL
	RET

;OPTIMIZER ADDED SUBROUTINE, CALLED 2 TIMES, CODE SIZE REDUCTION:6 WORDS
SUBOPT_0x6:
	LDD  R26,Y+16
	LDD  R27,Y+16+1
	ADIW R26,4
	CALL __GETW1P
	STD  Y+6,R30
	STD  Y+6+1,R31
	ST   -Y,R31
	ST   -Y,R30
	RET

;OPTIMIZER ADDED SUBROUTINE, CALLED 2 TIMES, CODE SIZE REDUCTION:2 WORDS
SUBOPT_0x7:
	LDD  R26,Y+16
	LDD  R27,Y+16+1
	ADIW R26,4
	CALL __GETW1P
	STD  Y+10,R30
	STD  Y+10+1,R31
	RET

;OPTIMIZER ADDED SUBROUTINE, CALLED 2 TIMES, CODE SIZE REDUCTION:1 WORDS
SUBOPT_0x8:
	MOVW R26,R28
	ADIW R26,12
	CALL __ADDW2R15
	CALL __GETW1P
	RET


	.CSEG
_delay_ms:
	ld   r30,y+
	ld   r31,y+
	adiw r30,0
	breq __delay_ms1
__delay_ms0:
	__DELAY_USW 0x7D0
	wdr
	sbiw r30,1
	brne __delay_ms0
__delay_ms1:
	ret

__ADDW2R15:
	CLR  R0
	ADD  R26,R15
	ADC  R27,R0
	RET

__ANEGW1:
	NEG  R31
	NEG  R30
	SBCI R31,0
	RET

__CWD1:
	MOV  R22,R31
	ADD  R22,R22
	SBC  R22,R22
	MOV  R23,R22
	RET

__GETW1P:
	LD   R30,X+
	LD   R31,X
	SBIW R26,1
	RET

__GETW1PF:
	LPM  R0,Z+
	LPM  R31,Z
	MOV  R30,R0
	RET

__PUTPARD1:
	ST   -Y,R23
	ST   -Y,R22
	ST   -Y,R31
	ST   -Y,R30
	RET

__SAVELOCR6:
	ST   -Y,R21
__SAVELOCR5:
	ST   -Y,R20
__SAVELOCR4:
	ST   -Y,R19
__SAVELOCR3:
	ST   -Y,R18
__SAVELOCR2:
	ST   -Y,R17
	ST   -Y,R16
	RET

__LOADLOCR6:
	LDD  R21,Y+5
__LOADLOCR5:
	LDD  R20,Y+4
__LOADLOCR4:
	LDD  R19,Y+3
__LOADLOCR3:
	LDD  R18,Y+2
__LOADLOCR2:
	LDD  R17,Y+1
	LD   R16,Y
	RET

;END OF CODE MARKER
__END_OF_CODE:
